; Function Attrs: mustprogress uwtable
define hidden noundef zeroext i1 @_ZNK19OpenColorIO_v2_5dev17GradingToneOpData6equalsERKNS_6OpDataE(ptr noundef nonnull align 8 dereferenceable(196) %0, ptr noundef nonnull align 8 dereferenceable(168) %1) unnamed_addr #3 align 2 {
  %3 = tail call noundef zeroext i1 @_ZNK19OpenColorIO_v2_5dev6OpData6equalsERKS0_(ptr noundef nonnull align 8 dereferenceable(168) %0, ptr noundef nonnull align 8 dereferenceable(168) %1)
  br i1 %3, label %4, label %20

4:                                                ; preds = %2
  %5 = getelementptr inbounds nuw i8, ptr %0, i64 192
  %6 = load i32, ptr %5, align 8, !tbaa !56
  %7 = getelementptr inbounds nuw i8, ptr %1, i64 192
  %8 = load i32, ptr %7, align 8, !tbaa !56
  %.not = icmp eq i32 %6, %8
  br i1 %.not, label %9, label %20

9:                                                ; preds = %4
  %10 = getelementptr inbounds nuw i8, ptr %0, i64 168
  %11 = load i32, ptr %10, align 8, !tbaa !6
  %12 = getelementptr inbounds nuw i8, ptr %1, i64 168
  %13 = load i32, ptr %12, align 8, !tbaa !6
  %.not7 = icmp eq i32 %11, %13
  br i1 %.not7, label %14, label %20

14:                                               ; preds = %9
  %15 = getelementptr inbounds nuw i8, ptr %0, i64 176
  %16 = load ptr, ptr %15, align 8, !tbaa !49
  %17 = getelementptr inbounds nuw i8, ptr %1, i64 176
  %18 = load ptr, ptr %17, align 8, !tbaa !49
  %19 = tail call noundef zeroext i1 @_ZNK19OpenColorIO_v2_5dev19DynamicPropertyImpl6equalsERKS0_(ptr noundef nonnull align 8 dereferenceable(13) %16, ptr noundef nonnull align 8 dereferenceable(13) %18)
  br label %20

20:                                               ; preds = %14, %9, %4, %2
  %.0 = phi i1 [ false, %2 ], [ false, %9 ], [ false, %4 ], [ %19, %14 ]
  ret i1 %.0
}